target datalayout = "e-m:e-p270:32:32-p271:32:32-p272:64:64-i64:64-i128:128-f80:128-n8:16:32:64-S128"
target triple = "x86_64-unknown-linux-gnu"

%struct.ReplayGainFilter = type { i64, i32, [11 x float], [11 x float], [3 x float], [3 x float] }

@linprebuf = internal global [20 x float] zeroinitializer, align 16
@linpre = internal global ptr null, align 8
@rinprebuf = internal global [20 x float] zeroinitializer, align 16
@rinpre = internal global ptr null, align 8
@lstepbuf = internal global ptr null, align 8
@lstep = internal global ptr null, align 8
@rstepbuf = internal global ptr null, align 8
@rstep = internal global ptr null, align 8
@loutbuf = internal global ptr null, align 8
@lout = internal global ptr null, align 8
@routbuf = internal global ptr null, align 8
@rout = internal global ptr null, align 8
@B = internal global [12000 x i32] zeroinitializer, align 16
@replaygainfilter = internal global ptr null, align 8
@sampleWindow = internal global i32 0, align 4
@totsamp = internal global i64 0, align 8
@lsum = internal global double 0.000000e+00, align 8
@rsum = internal global double 0.000000e+00, align 8
@A = internal global [12000 x i32] zeroinitializer, align 16

; Function Attrs: nounwind sspstrong uwtable
define internal ptr @safe_realloc_(ptr noundef %ptr, i64 noundef %size) #0 {
entry:
  %ptr.addr = alloca ptr, align 8
  %size.addr = alloca i64, align 8
  %oldptr = alloca ptr, align 8
  %newptr = alloca ptr, align 8
  store ptr %ptr, ptr %ptr.addr, align 8
  store i64 %size, ptr %size.addr, align 8
  %0 = load ptr, ptr %ptr.addr, align 8
  store ptr %0, ptr %oldptr, align 8
  %1 = load ptr, ptr %ptr.addr, align 8
  %2 = load i64, ptr %size.addr, align 8
  %call = call ptr @realloc(ptr noundef %1, i64 noundef %2) #9
  store ptr %call, ptr %newptr, align 8
  %3 = load i64, ptr %size.addr, align 8
  %cmp = icmp ugt i64 %3, 0
  br i1 %cmp, label %land.lhs.true, label %if.end

land.lhs.true:                                    ; preds = %entry
  %4 = load ptr, ptr %newptr, align 8
  %cmp1 = icmp eq ptr %4, null
  br i1 %cmp1, label %if.then, label %if.end

if.then:                                          ; preds = %land.lhs.true
  %5 = load ptr, ptr %oldptr, align 8
  call void @free(ptr noundef %5) #7
  br label %if.end

if.end:                                           ; preds = %if.then, %land.lhs.true, %entry
  %6 = load ptr, ptr %newptr, align 8
  ret ptr %6
}

; Function Attrs: nounwind sspstrong uwtable
define internal ptr @ReallocateWindowBuffer(i32 noundef %window_size, ptr noundef %window_buffer) #0 {
entry:
  %window_size.addr = alloca i32, align 4
  %window_buffer.addr = alloca ptr, align 8
  store i32 %window_size, ptr %window_size.addr, align 4
  store ptr %window_buffer, ptr %window_buffer.addr, align 8
  %0 = load ptr, ptr %window_buffer.addr, align 8
  %1 = load ptr, ptr %0, align 8
  %2 = load i32, ptr %window_size.addr, align 4
  %add = add i32 %2, 10
  %conv = zext i32 %add to i64
  %mul = mul i64 4, %conv
  %call = call ptr @safe_realloc_(ptr noundef %1, i64 noundef %mul)
  %3 = load ptr, ptr %window_buffer.addr, align 8
  store ptr %call, ptr %3, align 8
  %4 = load ptr, ptr %window_buffer.addr, align 8
  %5 = load ptr, ptr %4, align 8
  ret ptr %5
}

; Function Attrs: nounwind sspstrong uwtable
define internal ptr @CreateGainFilter(i64 noundef %samplefreq) #0 {
entry:
  %retval = alloca ptr, align 8
  %samplefreq.addr = alloca i64, align 8
  %i = alloca i32, align 4
  %maxrate = alloca i64, align 8
  %downsample = alloca i32, align 4
  %gainfilter = alloca ptr, align 8
  store i64 %samplefreq, ptr %samplefreq.addr, align 8
  store i64 0, ptr %maxrate, align 8
  store i32 1, ptr %downsample, align 4
  %call = call noalias ptr @malloc(i64 noundef 128) #8
  store ptr %call, ptr %gainfilter, align 8
  %0 = load ptr, ptr %gainfilter, align 8
  %tobool = icmp ne ptr %0, null
  br i1 %tobool, label %if.end, label %if.then

if.then:                                          ; preds = %entry
  store ptr null, ptr %retval, align 8
  br label %return

if.end:                                           ; preds = %entry
  br label %while.body

while.body:                                       ; preds = %while.end, %if.end
  store i32 0, ptr %i, align 4
  br label %for.cond

for.cond:                                         ; preds = %for.inc, %while.body
  %1 = load i32, ptr %i, align 4
  %conv = zext i32 %1 to i64
  %cmp = icmp ult i64 %conv, 13
  br i1 %cmp, label %for.body, label %for.end

for.body:                                         ; preds = %for.cond
  %2 = load i64, ptr %maxrate, align 8
  %3 = load i32, ptr %i, align 4
  %idxprom = zext i32 %3 to i64
  %arrayidx = getelementptr inbounds [13 x %struct.ReplayGainFilter], ptr @ReplayGainFilters, i64 0, i64 %idxprom
  %rate = getelementptr inbounds %struct.ReplayGainFilter, ptr %arrayidx, i32 0, i32 0
  %4 = load i64, ptr %rate, align 16
  %cmp2 = icmp slt i64 %2, %4
  br i1 %cmp2, label %if.then4, label %if.end8

if.then4:                                         ; preds = %for.body
  %5 = load i32, ptr %i, align 4
  %idxprom5 = zext i32 %5 to i64
  %arrayidx6 = getelementptr inbounds [13 x %struct.ReplayGainFilter], ptr @ReplayGainFilters, i64 0, i64 %idxprom5
  %rate7 = getelementptr inbounds %struct.ReplayGainFilter, ptr %arrayidx6, i32 0, i32 0
  %6 = load i64, ptr %rate7, align 16
  store i64 %6, ptr %maxrate, align 8
  br label %if.end8

if.end8:                                          ; preds = %if.then4, %for.body
  %7 = load i32, ptr %i, align 4
  %idxprom9 = zext i32 %7 to i64
  %arrayidx10 = getelementptr inbounds [13 x %struct.ReplayGainFilter], ptr @ReplayGainFilters, i64 0, i64 %idxprom9
  %rate11 = getelementptr inbounds %struct.ReplayGainFilter, ptr %arrayidx10, i32 0, i32 0
  %8 = load i64, ptr %rate11, align 16
  %9 = load i64, ptr %samplefreq.addr, align 8
  %cmp12 = icmp eq i64 %8, %9
  br i1 %cmp12, label %if.then14, label %if.end18

if.then14:                                        ; preds = %if.end8
  %10 = load ptr, ptr %gainfilter, align 8
  %11 = load i32, ptr %i, align 4
  %idxprom15 = zext i32 %11 to i64
  %arrayidx16 = getelementptr inbounds [13 x %struct.ReplayGainFilter], ptr @ReplayGainFilters, i64 0, i64 %idxprom15
  call void @llvm.memcpy.p0.p0.i64(ptr align 8 %10, ptr align 16 %arrayidx16, i64 128, i1 false)
  %12 = load i32, ptr %downsample, align 4
  %13 = load ptr, ptr %gainfilter, align 8
  %downsample17 = getelementptr inbounds %struct.ReplayGainFilter, ptr %13, i32 0, i32 1
  store i32 %12, ptr %downsample17, align 8
  %14 = load ptr, ptr %gainfilter, align 8
  store ptr %14, ptr %retval, align 8
  br label %return

if.end18:                                         ; preds = %if.end8
  br label %for.inc

for.inc:                                          ; preds = %if.end18
  %15 = load i32, ptr %i, align 4
  %inc = add i32 %15, 1
  store i32 %inc, ptr %i, align 4
  br label %for.cond, !llvm.loop !5

for.end:                                          ; preds = %for.cond
  %16 = load i64, ptr %samplefreq.addr, align 8
  %17 = load i64, ptr %maxrate, align 8
  %cmp19 = icmp slt i64 %16, %17
  br i1 %cmp19, label %if.then21, label %if.end22

if.then21:                                        ; preds = %for.end
  br label %while.end27

if.end22:                                         ; preds = %for.end
  br label %while.cond23

while.cond23:                                     ; preds = %while.body26, %if.end22
  %18 = load i64, ptr %samplefreq.addr, align 8
  %19 = load i64, ptr %maxrate, align 8
  %cmp24 = icmp sgt i64 %18, %19
  br i1 %cmp24, label %while.body26, label %while.end

while.body26:                                     ; preds = %while.cond23
  %20 = load i32, ptr %downsample, align 4
  %mul = mul i32 %20, 2
  store i32 %mul, ptr %downsample, align 4
  %21 = load i64, ptr %samplefreq.addr, align 8
  %div = sdiv i64 %21, 2
  store i64 %div, ptr %samplefreq.addr, align 8
  br label %while.cond23, !llvm.loop !7

while.end:                                        ; preds = %while.cond23
  br label %while.body

while.end27:                                      ; preds = %if.then21
  %22 = load ptr, ptr %gainfilter, align 8
  call void @free(ptr noundef %22) #7
  store ptr null, ptr %retval, align 8
  br label %return

return:                                           ; preds = %while.end27, %if.then14, %if.then
  %23 = load ptr, ptr %retval, align 8
  ret ptr %23
}

; Function Attrs: nounwind sspstrong uwtable
define internal i32 @ResetSampleFrequency(i64 noundef %samplefreq) #0 {
entry:
  %retval = alloca i32, align 4
  %samplefreq.addr = alloca i64, align 8
  %i = alloca i32, align 4
  store i64 %samplefreq, ptr %samplefreq.addr, align 8
  %0 = load ptr, ptr @replaygainfilter, align 8
  call void @free(ptr noundef %0) #7
  %1 = load i64, ptr %samplefreq.addr, align 8
  %call = call ptr @CreateGainFilter(i64 noundef %1)
  store ptr %call, ptr @replaygainfilter, align 8
  %2 = load ptr, ptr @replaygainfilter, align 8
  %tobool = icmp ne ptr %2, null
  br i1 %tobool, label %if.end, label %if.then

if.then:                                          ; preds = %entry
  store i32 0, ptr %retval, align 4
  br label %return

if.end:                                           ; preds = %entry
  %3 = load ptr, ptr @replaygainfilter, align 8
  %rate = getelementptr inbounds %struct.ReplayGainFilter, ptr %3, i32 0, i32 0
  %4 = load i64, ptr %rate, align 8
  %mul = mul nsw i64 %4, 50
  %add = add nsw i64 %mul, 1000
  %sub = sub nsw i64 %add, 1
  %div = sdiv i64 %sub, 1000
  %conv = trunc i64 %div to i32
  store i32 %conv, ptr @sampleWindow, align 4
  %5 = load i32, ptr @sampleWindow, align 4
  %call1 = call ptr @ReallocateWindowBuffer(i32 noundef %5, ptr noundef @lstepbuf)
  %tobool2 = icmp ne ptr %call1, null
  br i1 %tobool2, label %lor.lhs.false, label %if.then11

lor.lhs.false:                                    ; preds = %if.end
  %6 = load i32, ptr @sampleWindow, align 4
  %call3 = call ptr @ReallocateWindowBuffer(i32 noundef %6, ptr noundef @rstepbuf)
  %tobool4 = icmp ne ptr %call3, null
  br i1 %tobool4, label %lor.lhs.false5, label %if.then11

lor.lhs.false5:                                   ; preds = %lor.lhs.false
  %7 = load i32, ptr @sampleWindow, align 4
  %call6 = call ptr @ReallocateWindowBuffer(i32 noundef %7, ptr noundef @loutbuf)
  %tobool7 = icmp ne ptr %call6, null
  br i1 %tobool7, label %lor.lhs.false8, label %if.then11

lor.lhs.false8:                                   ; preds = %lor.lhs.false5
  %8 = load i32, ptr @sampleWindow, align 4
  %call9 = call ptr @ReallocateWindowBuffer(i32 noundef %8, ptr noundef @routbuf)
  %tobool10 = icmp ne ptr %call9, null
  br i1 %tobool10, label %if.end12, label %if.then11

if.then11:                                        ; preds = %lor.lhs.false8, %lor.lhs.false5, %lor.lhs.false, %if.end
  store i32 0, ptr %retval, align 4
  br label %return

if.end12:                                         ; preds = %lor.lhs.false8
  store i32 0, ptr %i, align 4
  br label %for.cond

for.cond:                                         ; preds = %for.inc, %if.end12
  %9 = load i32, ptr %i, align 4
  %cmp = icmp slt i32 %9, 10
  br i1 %cmp, label %for.body, label %for.end

for.body:                                         ; preds = %for.cond
  %10 = load ptr, ptr @routbuf, align 8
  %11 = load i32, ptr %i, align 4
  %idxprom = sext i32 %11 to i64
  %arrayidx = getelementptr inbounds float, ptr %10, i64 %idxprom
  store float 0.000000e+00, ptr %arrayidx, align 4
  %12 = load ptr, ptr @rstepbuf, align 8
  %13 = load i32, ptr %i, align 4
  %idxprom14 = sext i32 %13 to i64
  %arrayidx15 = getelementptr inbounds float, ptr %12, i64 %idxprom14
  store float 0.000000e+00, ptr %arrayidx15, align 4
  %14 = load i32, ptr %i, align 4
  %idxprom16 = sext i32 %14 to i64
  %arrayidx17 = getelementptr inbounds [20 x float], ptr @rinprebuf, i64 0, i64 %idxprom16
  store float 0.000000e+00, ptr %arrayidx17, align 4
  %15 = load ptr, ptr @loutbuf, align 8
  %16 = load i32, ptr %i, align 4
  %idxprom18 = sext i32 %16 to i64
  %arrayidx19 = getelementptr inbounds float, ptr %15, i64 %idxprom18
  store float 0.000000e+00, ptr %arrayidx19, align 4
  %17 = load ptr, ptr @lstepbuf, align 8
  %18 = load i32, ptr %i, align 4
  %idxprom20 = sext i32 %18 to i64
  %arrayidx21 = getelementptr inbounds float, ptr %17, i64 %idxprom20
  store float 0.000000e+00, ptr %arrayidx21, align 4
  %19 = load i32, ptr %i, align 4
  %idxprom22 = sext i32 %19 to i64
  %arrayidx23 = getelementptr inbounds [20 x float], ptr @linprebuf, i64 0, i64 %idxprom22
  store float 0.000000e+00, ptr %arrayidx23, align 4
  br label %for.inc

for.inc:                                          ; preds = %for.body
  %20 = load i32, ptr %i, align 4
  %inc = add nsw i32 %20, 1
  store i32 %inc, ptr %i, align 4
  br label %for.cond, !llvm.loop !8

for.end:                                          ; preds = %for.cond
  store double 0.000000e+00, ptr @lsum, align 8
  store double 0.000000e+00, ptr @rsum, align 8
  store i64 0, ptr @totsamp, align 8
  call void @llvm.memset.p0.i64(ptr align 16 @A, i8 0, i64 48000, i1 false)
  store i32 1, ptr %retval, align 4
  br label %return

return:                                           ; preds = %for.end, %if.then11, %if.then
  %21 = load i32, ptr %retval, align 4
  ret i32 %21
}

; Function Attrs: nounwind sspstrong uwtable
define dso_local i32 @InitGainAnalysis(i64 noundef %samplefreq) #0 {
entry:
  %retval = alloca i32, align 4
  %samplefreq.addr = alloca i64, align 8
  store i64 %samplefreq, ptr %samplefreq.addr, align 8
  %0 = load i64, ptr %samplefreq.addr, align 8
  %call = call i32 @ResetSampleFrequency(i64 noundef %0)
  %cmp = icmp ne i32 %call, 1
  br i1 %cmp, label %if.then, label %if.end

if.then:                                          ; preds = %entry
  store i32 0, ptr %retval, align 4
  br label %return

if.end:                                           ; preds = %entry
  %1 = getelementptr inbounds float, ptr @linprebuf, i64 10
  store ptr %1, ptr @linpre, align 8
  %2 = getelementptr inbounds float, ptr @rinprebuf, i64 10
  store ptr %2, ptr @rinpre, align 8
  %3 = load ptr, ptr @lstepbuf, align 8
  %add.ptr = getelementptr inbounds float, ptr %3, i64 10
  store ptr %add.ptr, ptr @lstep, align 8
  %4 = load ptr, ptr @rstepbuf, align 8
  %add.ptr1 = getelementptr inbounds float, ptr %4, i64 10
  store ptr %add.ptr1, ptr @rstep, align 8
  %5 = load ptr, ptr @loutbuf, align 8
  %add.ptr2 = getelementptr inbounds float, ptr %5, i64 10
  store ptr %add.ptr2, ptr @lout, align 8
  %6 = load ptr, ptr @routbuf, align 8
  %add.ptr3 = getelementptr inbounds float, ptr %6, i64 10
  store ptr %add.ptr3, ptr @rout, align 8
  call void @llvm.memset.p0.i64(ptr align 16 @B, i8 0, i64 48000, i1 false)
  store i32 1, ptr %retval, align 4
  br label %return

return:                                           ; preds = %if.end, %if.then
  %7 = load i32, ptr %retval, align 4
  ret i32 %7
}