; Function Attrs: nounwind sspstrong uwtable
define dso_local range(i32 0, 2) i32 @InitGainAnalysis(i64 noundef %samplefreq) local_unnamed_addr #2 {
entry:
  %0 = load ptr, ptr @replaygainfilter, align 8
  tail call void @free(ptr noundef %0) #13
  %call.i.i = tail call noalias dereferenceable_or_null(128) ptr @malloc(i64 noundef 128) #14
  %tobool.not.i.i = icmp eq ptr %call.i.i, null
  br i1 %tobool.not.i.i, label %CreateGainFilter.exit.thread.i, label %while.body.i.i.outer

while.body.i.i.outer:                             ; preds = %while.body26.i.i, %entry
  %samplefreq.addr.0.i.i.ph = phi i64 [ %samplefreq, %entry ], [ %div16.i.i, %while.body26.i.i ]
  %maxrate.0.i.i.ph = phi i64 [ 0, %entry ], [ %spec.select.i.i, %while.body26.i.i ]
  %downsample.0.i.i.ph = phi i32 [ 1, %entry ], [ %mul.i.i, %while.body26.i.i ]
  br label %while.body.i.i

while.body.i.i:                                   ; preds = %while.body.i.i.outer, %while.cond23.preheader.i.i
  %maxrate.0.i.i = phi i64 [ %spec.select.i.i, %while.cond23.preheader.i.i ], [ %maxrate.0.i.i.ph, %while.body.i.i.outer ]
  br label %for.body.i.i

for.body.i.i:                                     ; preds = %for.inc.i.i, %while.body.i.i
  %indvars.iv.i.i = phi i64 [ 0, %while.body.i.i ], [ %indvars.iv.next.i.i, %for.inc.i.i ]
  %maxrate.120.i.i = phi i64 [ %maxrate.0.i.i, %while.body.i.i ], [ %spec.select.i.i, %for.inc.i.i ]
  %arrayidx.i.i = getelementptr inbounds nuw [13 x %struct.ReplayGainFilter], ptr @ReplayGainFilters, i64 0, i64 %indvars.iv.i.i
  %1 = load i64, ptr %arrayidx.i.i, align 16
  %cmp12.i.i = icmp eq i64 %1, %samplefreq.addr.0.i.i.ph
  br i1 %cmp12.i.i, label %CreateGainFilter.exit.i, label %for.inc.i.i

for.inc.i.i:                                      ; preds = %for.body.i.i
  %spec.select.i.i = tail call i64 @llvm.smax.i64(i64 %maxrate.120.i.i, i64 %1)
  %indvars.iv.next.i.i = add nuw nsw i64 %indvars.iv.i.i, 1
  %exitcond.not.i.i = icmp eq i64 %indvars.iv.next.i.i, 13
  br i1 %exitcond.not.i.i, label %for.end.i.i, label %for.body.i.i, !llvm.loop !5

for.end.i.i:                                      ; preds = %for.inc.i.i
  %cmp19.i.i = icmp slt i64 %samplefreq.addr.0.i.i.ph, %spec.select.i.i
  br i1 %cmp19.i.i, label %while.end27.i.i, label %while.cond23.preheader.i.i

while.cond23.preheader.i.i:                       ; preds = %for.end.i.i
  %cmp2421.i.i = icmp sgt i64 %samplefreq.addr.0.i.i.ph, %spec.select.i.i
  br i1 %cmp2421.i.i, label %while.body26.i.i, label %while.body.i.i

while.body26.i.i:                                 ; preds = %while.cond23.preheader.i.i, %while.body26.i.i
  %downsample.123.i.i = phi i32 [ %mul.i.i, %while.body26.i.i ], [ %downsample.0.i.i.ph, %while.cond23.preheader.i.i ]
  %samplefreq.addr.122.i.i = phi i64 [ %div16.i.i, %while.body26.i.i ], [ %samplefreq.addr.0.i.i.ph, %while.cond23.preheader.i.i ]
  %mul.i.i = shl i32 %downsample.123.i.i, 1
  %div16.i.i = lshr i64 %samplefreq.addr.122.i.i, 1
  %cmp24.i.i = icmp sgt i64 %div16.i.i, %spec.select.i.i
  br i1 %cmp24.i.i, label %while.body26.i.i, label %while.body.i.i.outer, !llvm.loop !7

while.end27.i.i:                                  ; preds = %for.end.i.i
  tail call void @free(ptr noundef %call.i.i) #13
  br label %CreateGainFilter.exit.thread.i

CreateGainFilter.exit.thread.i:                   ; preds = %while.end27.i.i, %entry
  store ptr null, ptr @replaygainfilter, align 8
  br label %return

CreateGainFilter.exit.i:                          ; preds = %for.body.i.i
  tail call void @llvm.memcpy.p0.p0.i64(ptr noundef nonnull align 8 dereferenceable(128) %call.i.i, ptr noundef nonnull align 16 dereferenceable(128) %arrayidx.i.i, i64 128, i1 false)
  %downsample17.i.i = getelementptr inbounds nuw i8, ptr %call.i.i, i64 8
  store i32 %downsample.0.i.i.ph, ptr %downsample17.i.i, align 8
  store ptr %call.i.i, ptr @replaygainfilter, align 8
  %2 = load i64, ptr %call.i.i, align 8
  %mul.i = mul nsw i64 %2, 50
  %sub.i = add nsw i64 %mul.i, 999
  %div.i = sdiv i64 %sub.i, 1000
  %conv.i = trunc i64 %div.i to i32
  store i32 %conv.i, ptr @sampleWindow, align 4
  %3 = load ptr, ptr @lstepbuf, align 8
  %add.i.i = add i32 %conv.i, 10
  %conv.i.i = zext i32 %add.i.i to i64
  %mul.i8.i = shl nuw nsw i64 %conv.i.i, 2
  %call.i.i.i = tail call ptr @realloc(ptr noundef %3, i64 noundef range(i64 0, 17179869181) %mul.i8.i) #15
  %cmp.i.i.i = icmp ne i32 %add.i.i, 0
  %cmp1.i.i.i = icmp eq ptr %call.i.i.i, null
  %or.cond.i.i.i = and i1 %cmp1.i.i.i, %cmp.i.i.i
  br i1 %or.cond.i.i.i, label %ReallocateWindowBuffer.exit.thread.i, label %ReallocateWindowBuffer.exit.i

ReallocateWindowBuffer.exit.thread.i:             ; preds = %CreateGainFilter.exit.i
  tail call void @free(ptr noundef %3) #13
  store ptr null, ptr @lstepbuf, align 8
  br label %return

ReallocateWindowBuffer.exit.i:                    ; preds = %CreateGainFilter.exit.i
  store ptr %call.i.i.i, ptr @lstepbuf, align 8
  br i1 %cmp1.i.i.i, label %return, label %lor.lhs.false.i

lor.lhs.false.i:                                  ; preds = %ReallocateWindowBuffer.exit.i
  %4 = load ptr, ptr @rstepbuf, align 8
  %call.i.i12.i = tail call ptr @realloc(ptr noundef %4, i64 noundef range(i64 0, 17179869181) %mul.i8.i) #15
  %cmp1.i.i14.i = icmp eq ptr %call.i.i12.i, null
  %or.cond.i.i15.i = and i1 %cmp.i.i.i, %cmp1.i.i14.i
  br i1 %or.cond.i.i15.i, label %ReallocateWindowBuffer.exit17.thread.i, label %ReallocateWindowBuffer.exit17.i

ReallocateWindowBuffer.exit17.thread.i:           ; preds = %lor.lhs.false.i
  tail call void @free(ptr noundef %4) #13
  store ptr null, ptr @rstepbuf, align 8
  br label %return

ReallocateWindowBuffer.exit17.i:                  ; preds = %lor.lhs.false.i
  store ptr %call.i.i12.i, ptr @rstepbuf, align 8
  br i1 %cmp1.i.i14.i, label %return, label %lor.lhs.false5.i

lor.lhs.false5.i:                                 ; preds = %ReallocateWindowBuffer.exit17.i
  %5 = load ptr, ptr @loutbuf, align 8
  %call.i.i21.i = tail call ptr @realloc(ptr noundef %5, i64 noundef range(i64 0, 17179869181) %mul.i8.i) #15
  %cmp1.i.i23.i = icmp eq ptr %call.i.i21.i, null
  %or.cond.i.i24.i = and i1 %cmp.i.i.i, %cmp1.i.i23.i
  br i1 %or.cond.i.i24.i, label %ReallocateWindowBuffer.exit26.thread.i, label %ReallocateWindowBuffer.exit26.i

ReallocateWindowBuffer.exit26.thread.i:           ; preds = %lor.lhs.false5.i
  tail call void @free(ptr noundef %5) #13
  store ptr null, ptr @loutbuf, align 8
  br label %return

ReallocateWindowBuffer.exit26.i:                  ; preds = %lor.lhs.false5.i
  store ptr %call.i.i21.i, ptr @loutbuf, align 8
  br i1 %cmp1.i.i23.i, label %return, label %lor.lhs.false8.i

lor.lhs.false8.i:                                 ; preds = %ReallocateWindowBuffer.exit26.i
  %6 = load ptr, ptr @routbuf, align 8
  %call.i.i30.i = tail call ptr @realloc(ptr noundef %6, i64 noundef range(i64 0, 17179869181) %mul.i8.i) #15
  %cmp1.i.i32.i = icmp eq ptr %call.i.i30.i, null
  %or.cond.i.i33.i = and i1 %cmp.i.i.i, %cmp1.i.i32.i
  br i1 %or.cond.i.i33.i, label %ReallocateWindowBuffer.exit35.thread.i, label %ReallocateWindowBuffer.exit35.i

ReallocateWindowBuffer.exit35.thread.i:           ; preds = %lor.lhs.false8.i
  tail call void @free(ptr noundef %6) #13
  store ptr null, ptr @routbuf, align 8
  br label %return

ReallocateWindowBuffer.exit35.i:                  ; preds = %lor.lhs.false8.i
  store ptr %call.i.i30.i, ptr @routbuf, align 8
  br i1 %cmp1.i.i32.i, label %return, label %for.body.i.preheader

for.body.i.preheader:                             ; preds = %ReallocateWindowBuffer.exit35.i
  %7 = load ptr, ptr @routbuf, align 8
  %8 = load ptr, ptr @rstepbuf, align 8
  %9 = load ptr, ptr @loutbuf, align 8
  %10 = load ptr, ptr @lstepbuf, align 8
  br label %for.body.i

for.body.i:                                       ; preds = %for.body.i.preheader, %for.body.i
  %indvars.iv.i = phi i64 [ %indvars.iv.next.i, %for.body.i ], [ 0, %for.body.i.preheader ]
  %arrayidx.i = getelementptr inbounds nuw float, ptr %7, i64 %indvars.iv.i
  store float 0.000000e+00, ptr %arrayidx.i, align 4
  %arrayidx15.i = getelementptr inbounds nuw float, ptr %8, i64 %indvars.iv.i
  store float 0.000000e+00, ptr %arrayidx15.i, align 4
  %arrayidx17.i = getelementptr inbounds nuw [20 x float], ptr @rinprebuf, i64 0, i64 %indvars.iv.i
  store float 0.000000e+00, ptr %arrayidx17.i, align 4
  %arrayidx19.i = getelementptr inbounds nuw float, ptr %9, i64 %indvars.iv.i
  store float 0.000000e+00, ptr %arrayidx19.i, align 4
  %arrayidx21.i = getelementptr inbounds nuw float, ptr %10, i64 %indvars.iv.i
  store float 0.000000e+00, ptr %arrayidx21.i, align 4
  %arrayidx23.i = getelementptr inbounds nuw [20 x float], ptr @linprebuf, i64 0, i64 %indvars.iv.i
  store float 0.000000e+00, ptr %arrayidx23.i, align 4
  %indvars.iv.next.i = add nuw nsw i64 %indvars.iv.i, 1
  %exitcond.not.i = icmp eq i64 %indvars.iv.next.i, 10
  br i1 %exitcond.not.i, label %if.end, label %for.body.i, !llvm.loop !8

if.end:                                           ; preds = %for.body.i
  store double 0.000000e+00, ptr @lsum, align 8
  store double 0.000000e+00, ptr @rsum, align 8
  store i64 0, ptr @totsamp, align 8
  tail call void @llvm.memset.p0.i64(ptr noundef nonnull align 16 dereferenceable(48000) @A, i8 0, i64 48000, i1 false)
  store ptr getelementptr inbounds nuw (i8, ptr @linprebuf, i64 40), ptr @linpre, align 8
  store ptr getelementptr inbounds nuw (i8, ptr @rinprebuf, i64 40), ptr @rinpre, align 8
  %11 = load ptr, ptr @lstepbuf, align 8
  %add.ptr = getelementptr inbounds nuw i8, ptr %11, i64 40
  store ptr %add.ptr, ptr @lstep, align 8
  %12 = load ptr, ptr @rstepbuf, align 8
  %add.ptr1 = getelementptr inbounds nuw i8, ptr %12, i64 40
  store ptr %add.ptr1, ptr @rstep, align 8
  %13 = load ptr, ptr @loutbuf, align 8
  %add.ptr2 = getelementptr inbounds nuw i8, ptr %13, i64 40
  store ptr %add.ptr2, ptr @lout, align 8
  %14 = load ptr, ptr @routbuf, align 8
  %add.ptr3 = getelementptr inbounds nuw i8, ptr %14, i64 40
  store ptr %add.ptr3, ptr @rout, align 8
  tail call void @llvm.memset.p0.i64(ptr noundef nonnull align 16 dereferenceable(48000) @B, i8 0, i64 48000, i1 false)
  br label %return

return:                                           ; preds = %ReallocateWindowBuffer.exit35.thread.i, %ReallocateWindowBuffer.exit26.thread.i, %ReallocateWindowBuffer.exit17.thread.i, %ReallocateWindowBuffer.exit.thread.i, %CreateGainFilter.exit.thread.i, %ReallocateWindowBuffer.exit.i, %ReallocateWindowBuffer.exit17.i, %ReallocateWindowBuffer.exit26.i, %ReallocateWindowBuffer.exit35.i, %if.end
  %retval.0 = phi i32 [ 1, %if.end ], [ 0, %ReallocateWindowBuffer.exit35.i ], [ 0, %ReallocateWindowBuffer.exit26.i ], [ 0, %ReallocateWindowBuffer.exit17.i ], [ 0, %ReallocateWindowBuffer.exit.i ], [ 0, %CreateGainFilter.exit.thread.i ], [ 0, %ReallocateWindowBuffer.exit.thread.i ], [ 0, %ReallocateWindowBuffer.exit17.thread.i ], [ 0, %ReallocateWindowBuffer.exit26.thread.i ], [ 0, %ReallocateWindowBuffer.exit35.thread.i ]
  ret i32 %retval.0
}